; Function Attrs: mustprogress norecurse nounwind uwtable
define internal fastcc void @_ZNSt6vectorIZ4mainE4TestSaIS0_EED2Ev(ptr noundef nonnull readonly align 8 captures(none) dereferenceable(24) %0) unnamed_addr #11 align 2 personality ptr @__gxx_personality_v0 {
  %2 = load ptr, ptr %0, align 8, !tbaa !42
  %3 = getelementptr inbounds nuw i8, ptr %0, i64 8
  %4 = load ptr, ptr %3, align 8, !tbaa !45
  %.not4.i.i.i = icmp eq ptr %2, %4
  br i1 %.not4.i.i.i, label %_ZSt8_DestroyIPZ4mainE4TestS0_EvT_S2_RSaIT0_E.exit, label %.lr.ph.i.i.i

.lr.ph.i.i.i:                                     ; preds = %1, %_ZSt8_DestroyIZ4mainE4TestEvPT_.exit.i.i.i
  %.05.i.i.i = phi ptr [ %13, %_ZSt8_DestroyIZ4mainE4TestEvPT_.exit.i.i.i ], [ %2, %1 ]
  %5 = load ptr, ptr %.05.i.i.i, align 8, !tbaa !11
  %6 = getelementptr inbounds nuw i8, ptr %.05.i.i.i, i64 16
  %7 = icmp eq ptr %5, %6
  br i1 %7, label %_ZNKSt7__cxx1112basic_stringIcSt11char_traitsIcESaIcEE11_M_is_localEv.exit.thread.i.i.i.i.i.i.i, label %_ZNKSt7__cxx1112basic_stringIcSt11char_traitsIcESaIcEE11_M_is_localEv.exit.i.i.i.i.i.i.i

_ZNKSt7__cxx1112basic_stringIcSt11char_traitsIcESaIcEE11_M_is_localEv.exit.thread.i.i.i.i.i.i.i: ; preds = %.lr.ph.i.i.i
  %8 = getelementptr inbounds nuw i8, ptr %.05.i.i.i, i64 8
  %9 = load i64, ptr %8, align 8, !tbaa !14
  %10 = icmp ult i64 %9, 16
  tail call void @llvm.assume(i1 %10)
  br label %_ZSt8_DestroyIZ4mainE4TestEvPT_.exit.i.i.i

_ZNKSt7__cxx1112basic_stringIcSt11char_traitsIcESaIcEE11_M_is_localEv.exit.i.i.i.i.i.i.i: ; preds = %.lr.ph.i.i.i
  %11 = load i64, ptr %6, align 8, !tbaa !13
  %12 = add i64 %11, 1
  tail call void @_ZdlPvm(ptr noundef %5, i64 noundef %12) #26
  br label %_ZSt8_DestroyIZ4mainE4TestEvPT_.exit.i.i.i

_ZSt8_DestroyIZ4mainE4TestEvPT_.exit.i.i.i:       ; preds = %_ZNKSt7__cxx1112basic_stringIcSt11char_traitsIcESaIcEE11_M_is_localEv.exit.i.i.i.i.i.i.i, %_ZNKSt7__cxx1112basic_stringIcSt11char_traitsIcESaIcEE11_M_is_localEv.exit.thread.i.i.i.i.i.i.i
  %13 = getelementptr inbounds nuw i8, ptr %.05.i.i.i, i64 40
  %.not.i.i.i = icmp eq ptr %13, %4
  br i1 %.not.i.i.i, label %_ZSt8_DestroyIPZ4mainE4TestS0_EvT_S2_RSaIT0_E.exitthread-pre-split, label %.lr.ph.i.i.i, !llvm.loop !46

_ZSt8_DestroyIPZ4mainE4TestS0_EvT_S2_RSaIT0_E.exitthread-pre-split: ; preds = %_ZSt8_DestroyIZ4mainE4TestEvPT_.exit.i.i.i
  %.val.pr = load ptr, ptr %0, align 8, !tbaa !42
  br label %_ZSt8_DestroyIPZ4mainE4TestS0_EvT_S2_RSaIT0_E.exit

_ZSt8_DestroyIPZ4mainE4TestS0_EvT_S2_RSaIT0_E.exit: ; preds = %_ZSt8_DestroyIPZ4mainE4TestS0_EvT_S2_RSaIT0_E.exitthread-pre-split, %1
  %.val = phi ptr [ %.val.pr, %_ZSt8_DestroyIPZ4mainE4TestS0_EvT_S2_RSaIT0_E.exitthread-pre-split ], [ %2, %1 ]
  %.not.i.i = icmp eq ptr %.val, null
  br i1 %.not.i.i, label %_ZNSt12_Vector_baseIZ4mainE4TestSaIS0_EED2Ev.exit, label %14

14:                                               ; preds = %_ZSt8_DestroyIPZ4mainE4TestS0_EvT_S2_RSaIT0_E.exit
  %15 = getelementptr inbounds nuw i8, ptr %0, i64 16
  %.val1 = load ptr, ptr %15, align 8, !tbaa !47
  %16 = ptrtoint ptr %.val1 to i64
  %17 = ptrtoint ptr %.val to i64
  %18 = sub i64 %16, %17
  tail call void @_ZdlPvm(ptr noundef nonnull %.val, i64 noundef %18) #26
  br label %_ZNSt12_Vector_baseIZ4mainE4TestSaIS0_EED2Ev.exit

_ZNSt12_Vector_baseIZ4mainE4TestSaIS0_EED2Ev.exit: ; preds = %_ZSt8_DestroyIPZ4mainE4TestS0_EvT_S2_RSaIT0_E.exit, %14
  ret void
}